; Function Attrs: nounwind uwtable
define hidden range(i32 0, 44) i32 @Curl_setstropt(ptr noundef captures(none) %0, ptr noundef %1) local_unnamed_addr #0 {
  %3 = load ptr, ptr @Curl_cfree, align 8, !tbaa !3
  %4 = load ptr, ptr %0, align 8, !tbaa !7
  tail call void %3(ptr noundef %4) #10
  store ptr null, ptr %0, align 8, !tbaa !7
  %.not = icmp eq ptr %1, null
  br i1 %.not, label %11, label %5

5:                                                ; preds = %2
  %6 = tail call i64 @strlen(ptr noundef nonnull dereferenceable(1) %1) #11
  %7 = icmp ugt i64 %6, 8000000
  br i1 %7, label %12, label %8

8:                                                ; preds = %5
  %9 = load ptr, ptr @Curl_cstrdup, align 8, !tbaa !3
  %10 = tail call ptr %9(ptr noundef nonnull %1) #10
  store ptr %10, ptr %0, align 8, !tbaa !7
  %.not8 = icmp eq ptr %10, null
  br i1 %.not8, label %12, label %11

11:                                               ; preds = %8, %2
  br label %12

12:                                               ; preds = %8, %5, %11
  %.0 = phi i32 [ 0, %11 ], [ 43, %5 ], [ 27, %8 ]
  ret i32 %.0
}